; Function Attrs: nounwind uwtable
define ptr @l_Array_foldlMUnsafe_fold___at_Lake_InputDir_defaultFacetConfig___spec__2(ptr noundef readonly captures(none) %0, i64 noundef %1, i64 noundef %2, ptr noundef %3) local_unnamed_addr #0 {
  %.not39 = icmp eq i64 %1, %2
  br i1 %.not39, label %._crit_edge, label %.lr.ph

.lr.ph:                                           ; preds = %4
  %5 = getelementptr inbounds nuw i8, ptr %0, i64 24
  br label %6

6:                                                ; preds = %.lr.ph, %37
  %.02241 = phi i64 [ %1, %.lr.ph ], [ %40, %37 ]
  %.02440 = phi ptr [ %3, %.lr.ph ], [ %39, %37 ]
  %7 = getelementptr inbounds nuw [0 x ptr], ptr %5, i64 0, i64 %.02241
  %8 = load ptr, ptr %7, align 8, !tbaa !4
  %9 = ptrtoint ptr %8 to i64
  %10 = and i64 %9, 1
  %.not.i29 = icmp eq i64 %10, 0
  br i1 %.not.i29, label %11, label %lean_array_uget.exit

11:                                               ; preds = %6
  %.val.i.i = load i32, ptr %8, align 4, !tbaa !8
  %12 = icmp sgt i32 %.val.i.i, 0
  br i1 %12, label %13, label %15, !prof !11

13:                                               ; preds = %11
  %14 = add nuw i32 %.val.i.i, 1
  store i32 %14, ptr %8, align 4, !tbaa !8
  br label %lean_array_uget.exit

15:                                               ; preds = %11
  %.not.i.i = icmp eq i32 %.val.i.i, 0
  br i1 %.not.i.i, label %lean_array_uget.exit, label %16

16:                                               ; preds = %15
  tail call void @lean_inc_ref_cold(ptr noundef nonnull %8) #5
  br label %lean_array_uget.exit

lean_array_uget.exit:                             ; preds = %6, %13, %15, %16
  %17 = load ptr, ptr @l_Lake_ensureJob___at___private_Lake_Build_InputFile_0__Lake_InputFile_recFetch___spec__1___closed__3, align 8, !tbaa !4
  %18 = tail call ptr @lean_string_append(ptr noundef %17, ptr noundef %.02440) #5
  %19 = ptrtoint ptr %.02440 to i64
  %20 = and i64 %19, 1
  %.not37 = icmp eq i64 %20, 0
  br i1 %.not37, label %21, label %lean_dec.exit26

21:                                               ; preds = %lean_array_uget.exit
  %22 = load i32, ptr %.02440, align 4, !tbaa !8
  %23 = icmp sgt i32 %22, 1
  br i1 %23, label %24, label %26, !prof !11

24:                                               ; preds = %21
  %25 = add nsw i32 %22, -1
  store i32 %25, ptr %.02440, align 4, !tbaa !8
  br label %lean_dec.exit26

26:                                               ; preds = %21
  %.not.i = icmp eq i32 %22, 0
  br i1 %.not.i, label %lean_dec.exit26, label %27

27:                                               ; preds = %26
  tail call void @lean_dec_ref_cold(ptr noundef nonnull %.02440) #5
  br label %lean_dec.exit26

lean_dec.exit26:                                  ; preds = %27, %26, %24, %lean_array_uget.exit
  %28 = tail call ptr @lean_string_append(ptr noundef %18, ptr noundef %17) #5
  %29 = tail call ptr @lean_string_append(ptr noundef %28, ptr noundef %8) #5
  br i1 %.not.i29, label %30, label %37

30:                                               ; preds = %lean_dec.exit26
  %31 = load i32, ptr %8, align 4, !tbaa !8
  %32 = icmp sgt i32 %31, 1
  br i1 %32, label %33, label %35, !prof !11

33:                                               ; preds = %30
  %34 = add nsw i32 %31, -1
  store i32 %34, ptr %8, align 4, !tbaa !8
  br label %37

35:                                               ; preds = %30
  %.not.i27 = icmp eq i32 %31, 0
  br i1 %.not.i27, label %37, label %36

36:                                               ; preds = %35
  tail call void @lean_dec_ref_cold(ptr noundef nonnull %8) #5
  br label %37

37:                                               ; preds = %lean_dec.exit26, %33, %35, %36
  %38 = load ptr, ptr @l_Array_foldlMUnsafe_fold___at_Lake_InputDir_defaultFacetConfig___spec__2___closed__1, align 8, !tbaa !4
  %39 = tail call ptr @lean_string_append(ptr noundef %29, ptr noundef %38) #5
  %40 = add i64 %.02241, 1
  %.not = icmp eq i64 %40, %2
  br i1 %.not, label %._crit_edge, label %6

._crit_edge:                                      ; preds = %37, %4
  %.024.lcssa = phi ptr [ %3, %4 ], [ %39, %37 ]
  ret ptr %.024.lcssa
}